(lp0
(lp1
F0.1
aF0.08726646259971647
aa(lp2
F0.1
aF0.08726646259971647
aa(lp3
F0.1
aF0.08726646259971647
aa(lp4
F0.1
aF0.08726646259971647
aa(lp5
F0.1
aF0.0
aa(lp6
F0.1
aF-0.08726646259971647
aa(lp7
F0.1
aF-0.08726646259971647
aa(lp8
F0.1
aF-0.08726646259971647
aa(lp9
F0.1
aI0
aa(lp10
F0.1
aI0
aa(lp11
F0.1
aF0.17453292519943295
aa(lp12
F0.1
aF0.17453292519943295
aa(lp13
F0.1
aI0
aa(lp14
F0.1
aF0.08726646259971647
aa(lp15
F0.1
aF0.08726646259971647
aa(lp16
F0.1
aF0.08726646259971647
aa(lp17
F0.1
aF0.08726646259971647
aa(lp18
F0.1
aF0.08726646259971647
aa(lp19
F0.1
aI0
aa(lp20
F0.1
aI0
aa.