(lp0
(lp1
F0.1
aI0
aa(lp2
F0.1
aF0.08726646259971647
aa(lp3
F0.1
aF0.08726646259971647
aa(lp4
F0.1
aF0.17453292519943295
aa(lp5
F0.1
aF0.08726646259971647
aa(lp6
F0.1
aF0.08726646259971647
aa(lp7
F0.1
aF0.08726646259971647
aa(lp8
F0.1
aF0.08726646259971647
aa(lp9
F0.1
aF0.08726646259971647
aa(lp10
F0.1
aF0.08726646259971647
aa(lp11
F0.1
aF0.08726646259971647
aa(lp12
F0.1
aF0.08726646259971647
aa(lp13
F0.1
aF0.08726646259971647
aa(lp14
F0.1
aI0
aa(lp15
F0.1
aF0.08726646259971647
aa(lp16
F0.1
aF0.08726646259971647
aa(lp17
F0.1
aF0.08726646259971647
aa(lp18
F0.1
aF0.08726646259971647
aa(lp19
F0.1
aF0.08726646259971647
aa(lp20
F0.1
aF0.08726646259971647
aa(lp21
F0.1
aF0.17453292519943295
aa(lp22
F0.1
aF0.08726646259971647
aa(lp23
F0.1
aF0.08726646259971647
aa(lp24
F0.1
aF0.08726646259971647
aa(lp25
F0.1
aF0.08726646259971647
aa(lp26
F0.1
aF0.08726646259971647
aa(lp27
F0.1
aF0.08726646259971647
aa(lp28
F0.1
aF0.08726646259971647
aa(lp29
F0.1
aF0.08726646259971647
aa(lp30
F0.1
aF0.08726646259971647
aa(lp31
F0.1
aF0.17453292519943295
aa(lp32
F0.1
aF0.08726646259971647
aa(lp33
F0.1
aF0.08726646259971647
aa(lp34
F0.1
aF0.17453292519943295
aa(lp35
F0.1
aF0.08726646259971647
aa(lp36
F0.1
aF0.17453292519943295
aa(lp37
F0.1
aF0.17453292519943295
aa(lp38
F0.1
aF0.17453292519943295
aa(lp39
F0.1
aF0.17453292519943295
aa(lp40
F0.1
aF0.17453292519943295
aa(lp41
F0.1
aF0.17453292519943295
aa(lp42
F0.1
aF0.08726646259971647
aa(lp43
F0.1
aI0
aa(lp44
F0.1
aF0.08726646259971647
aa(lp45
F0.1
aI0
aa(lp46
F0.1
aI0
aa(lp47
F0.1
aF0.08726646259971647
aa(lp48
F0.1
aI0
aa(lp49
F0.1
aF0.08726646259971647
aa(lp50
F0.1
aI0
aa(lp51
F0.1
aF0.08726646259971647
aa(lp52
F0.1
aI0
aa(lp53
F0.1
aF0.08726646259971647
aa(lp54
F0.1
aF0.17453292519943295
aa(lp55
F0.1
aF0.08726646259971647
aa(lp56
F0.1
aF0.08726646259971647
aa(lp57
F0.1
aF0.17453292519943295
aa(lp58
F0.1
aF0.2617993877991494
aa(lp59
F0.1
aF0.08726646259971647
aa(lp60
F0.1
aF0.08726646259971647
aa(lp61
F0.1
aF0.08726646259971647
aa(lp62
F0.1
aF0.08726646259971647
aa(lp63
F0.1
aI0
aa(lp64
F0.1
aI0
aa(lp65
F0.1
aF0.08726646259971647
aa(lp66
F0.1
aI0
aa(lp67
F0.1
aI0
aa(lp68
F0.1
aF0.08726646259971647
aa(lp69
F0.1
aI0
aa(lp70
F0.1
aI0
aa.