(lp0
(lp1
F0.1
aI0
aa(lp2
F0.1
aI0
aa(lp3
F0.1
aI0
aa(lp4
F0.1
aI0
aa(lp5
F0.1
aI0
aa(lp6
F0.1
aI0
aa(lp7
F0.1
aI0
aa(lp8
F0.1
aI0
aa(lp9
F0.1
aI0
aa(lp10
F0.1
aI0
aa(lp11
F0.1
aI0
aa(lp12
F0.1
aI0
aa(lp13
F0.1
aI0
aa(lp14
F0.1
aI0
aa(lp15
F0.1
aI0
aa(lp16
F0.1
aI0
aa(lp17
F0.1
aI0
aa(lp18
F0.1
aI0
aa(lp19
F0.1
aI0
aa(lp20
F0.1
aI0
aa(lp21
F0.1
aI0
aa(lp22
F0.1
aI0
aa(lp23
F0.1
aI0
aa(lp24
F0.1
aI0
aa(lp25
F0.1
aI0
aa(lp26
F0.1
aI0
aa(lp27
F0.1
aI0
aa(lp28
F0.1
aI0
aa(lp29
F0.1
aI0
aa(lp30
F0.1
aI0
aa(lp31
F0.1
aI0
aa(lp32
F0.1
aI0
aa(lp33
F0.1
aI0
aa(lp34
F0.1
aI0
aa(lp35
F0.1
aI0
aa(lp36
F0.1
aI0
aa(lp37
F0.1
aI0
aa(lp38
F0.1
aI0
aa(lp39
F0.1
aI0
aa(lp40
F0.1
aI0
aa(lp41
F0.1
aI0
aa(lp42
F0.1
aF1.6580627893946123
aa(lp43
F0.1
aI0
aa(lp44
F0.1
aI0
aa(lp45
F0.1
aI0
aa(lp46
F0.1
aI0
aa(lp47
F0.1
aI0
aa(lp48
F0.1
aI0
aa(lp49
F0.1
aI0
aa(lp50
F0.1
aI0
aa(lp51
F0.1
aI0
aa(lp52
F0.1
aI0
aa(lp53
F0.1
aI0
aa(lp54
F0.1
aI0
aa(lp55
F0.1
aI0
aa(lp56
F0.1
aI0
aa(lp57
F0.1
aI0
aa(lp58
F0.1
aI0
aa(lp59
F0.1
aI0
aa(lp60
F0.1
aI0
aa(lp61
F0.1
aI0
aa(lp62
F0.1
aI0
aa(lp63
F0.1
aI0
aa(lp64
F0.1
aI0
aa(lp65
F0.1
aI0
aa(lp66
F0.1
aI0
aa(lp67
F0.1
aI0
aa(lp68
F0.1
aI0
aa(lp69
F0.1
aI0
aa(lp70
F0.1
aI0
aa(lp71
F0.1
aI0
aa(lp72
F0.1
aI0
aa(lp73
F0.1
aI0
aa(lp74
F0.1
aI0
aa(lp75
F0.1
aI0
aa(lp76
F0.1
aI0
aa(lp77
F0.1
aI0
aa(lp78
F0.1
aI0
aa(lp79
F0.1
aF1.3962634015954631
aa(lp80
F0.1
aI0
aa(lp81
F0.1
aI0
aa(lp82
F0.1
aI0
aa(lp83
F0.1
aI0
aa(lp84
F0.1
aI0
aa(lp85
F0.1
aI0
aa(lp86
F0.1
aI0
aa(lp87
F0.1
aI0
aa(lp88
F0.1
aF1.570796326794896
aa(lp89
F0.1
aI0
aa(lp90
F0.1
aI0
aa(lp91
F0.1
aI0
aa(lp92
F0.1
aI0
aa(lp93
F0.1
aI0
aa(lp94
F0.1
aI0
aa(lp95
F0.1
aI0
aa(lp96
F0.1
aI0
aa(lp97
F0.1
aI0
aa(lp98
F0.1
aI0
aa(lp99
F0.1
aI0
aa(lp100
F0.1
aI0
aa(lp101
F0.1
aI0
aa(lp102
F0.1
aI0
aa(lp103
F0.1
aI0
aa(lp104
F0.1
aI0
aa(lp105
F0.1
aI0
aa(lp106
F0.1
aI0
aa(lp107
F0.1
aI0
aa(lp108
F0.1
aI0
aa(lp109
F0.1
aI0
aa(lp110
F0.1
aI0
aa(lp111
F0.1
aI0
aa(lp112
F0.1
aI0
aa(lp113
F0.1
aI0
aa(lp114
F0.1
aI0
aa(lp115
F0.1
aI0
aa(lp116
F0.1
aI0
aa(lp117
F0.1
aI0
aa(lp118
F0.1
aI0
aa(lp119
F0.1
aI0
aa(lp120
F0.1
aI0
aa(lp121
F0.1
aI0
aa(lp122
F0.1
aI0
aa(lp123
F0.1
aI0
aa(lp124
F0.1
aI0
aa(lp125
F0.1
aI0
aa(lp126
F0.1
aI0
aa(lp127
F0.1
aI0
aa(lp128
F0.1
aI0
aa(lp129
F0.1
aI0
aa(lp130
F0.1
aI0
aa(lp131
F0.1
aI0
aa(lp132
F0.1
aI0
aa(lp133
F0.1
aI0
aa(lp134
F0.1
aI0
aa(lp135
F0.1
aI0
aa(lp136
F0.1
aI0
aa(lp137
F0.1
aI0
aa(lp138
F0.1
aI0
aa(lp139
F0.1
aI0
aa(lp140
F0.1
aI0
aa(lp141
F0.1
aI0
aa(lp142
F0.1
aI0
aa(lp143
F0.1
aI0
aa(lp144
F0.1
aI0
aa(lp145
F0.1
aI0
aa(lp146
F0.1
aI0
aa(lp147
F0.1
aI0
aa(lp148
F0.1
aI0
aa(lp149
F0.1
aI0
aa(lp150
F0.1
aI0
aa(lp151
F0.1
aI0
aa(lp152
F0.1
aI0
aa(lp153
F0.1
aI0
aa(lp154
F0.1
aI0
aa(lp155
F0.1
aI0
aa(lp156
F0.1
aI0
aa(lp157
F0.1
aI0
aa(lp158
F0.1
aI0
aa(lp159
F0.1
aI0
aa(lp160
F0.1
aI0
aa(lp161
F0.1
aF-1.3089969389957468
aa(lp162
F0.1
aI0
aa(lp163
F0.1
aI0
aa(lp164
F0.1
aI0
aa(lp165
F0.1
aI0
aa(lp166
F0.1
aI0
aa(lp167
F0.1
aI0
aa(lp168
F0.1
aI0
aa(lp169
F0.1
aI0
aa(lp170
F0.1
aI0
aa(lp171
F0.1
aI0
aa(lp172
F0.1
aI0
aa(lp173
F0.1
aI0
aa(lp174
F0.1
aI0
aa(lp175
F0.1
aI0
aa(lp176
F0.1
aI0
aa(lp177
F0.1
aI0
aa(lp178
F0.1
aI0
aa(lp179
F0.1
aI0
aa(lp180
F0.1
aI0
aa(lp181
F0.1
aI0
aa(lp182
F0.1
aI0
aa(lp183
F0.1
aI0
aa(lp184
F0.1
aI0
aa(lp185
F0.1
aI0
aa(lp186
F0.1
aI0
aa(lp187
F0.1
aI0
aa(lp188
F0.1
aI0
aa(lp189
F0.1
aI0
aa(lp190
F0.1
aI0
aa(lp191
F0.1
aI0
aa(lp192
F0.1
aI0
aa(lp193
F0.1
aI0
aa(lp194
F0.1
aI0
aa(lp195
F0.1
aI0
aa(lp196
F0.1
aI0
aa(lp197
F0.1
aI0
aa(lp198
F0.1
aI0
aa(lp199
F0.1
aI0
aa(lp200
F0.1
aI0
aa(lp201
F0.1
aI0
aa(lp202
F0.1
aI0
aa(lp203
F0.1
aI0
aa(lp204
F0.1
aI0
aa(lp205
F0.1
aI0
aa(lp206
F0.1
aF-2.1816615649929108
aa(lp207
F0.1
aI0
aa(lp208
F0.1
aI0
aa(lp209
F0.1
aI0
aa(lp210
F0.1
aI0
aa(lp211
F0.1
aI0
aa(lp212
F0.1
aI0
aa(lp213
F0.1
aI0
aa(lp214
F0.1
aI0
aa(lp215
F0.1
aF-1.0471975511965976
aa(lp216
F0.1
aI0
aa(lp217
F0.1
aI0
aa(lp218
F0.1
aI0
aa(lp219
F0.1
aI0
aa(lp220
F0.1
aI0
aa(lp221
F0.1
aI0
aa(lp222
F0.1
aI0
aa(lp223
F0.1
aI0
aa(lp224
F0.1
aI0
aa(lp225
F0.1
aI0
aa(lp226
F0.1
aI0
aa(lp227
F0.1
aI0
aa(lp228
F0.1
aI0
aa(lp229
F0.1
aI0
aa(lp230
F0.1
aI0
aa(lp231
F0.1
aI0
aa(lp232
F0.1
aF1.4835298641951795
aa(lp233
F0.1
aI0
aa(lp234
F0.1
aI0
aa(lp235
F0.1
aI0
aa(lp236
F0.1
aI0
aa(lp237
F0.1
aI0
aa(lp238
F0.1
aI0
aa(lp239
F0.1
aI0
aa(lp240
F0.1
aI0
aa(lp241
F0.1
aI0
aa(lp242
F0.1
aI0
aa(lp243
F0.1
aI0
aa(lp244
F0.1
aI0
aa(lp245
F0.1
aI0
aa(lp246
F0.1
aI0
aa(lp247
F0.1
aI0
aa(lp248
F0.1
aI0
aa(lp249
F0.1
aI0
aa(lp250
F0.1
aI0
aa(lp251
F0.1
aI0
aa(lp252
F0.1
aI0
aa(lp253
F0.1
aI0
aa(lp254
F0.1
aI0
aa(lp255
F0.1
aI0
aa(lp256
F0.1
aI0
aa(lp257
F0.1
aI0
aa(lp258
F0.1
aI0
aa(lp259
F0.1
aI0
aa(lp260
F0.1
aI0
aa(lp261
F0.1
aI0
aa(lp262
F0.1
aF-0.08726646259971647
aa(lp263
F0.1
aF-0.17453292519943295
aa(lp264
F0.1
aI0
aa(lp265
F0.1
aI0
aa.